target datalayout = "e-m:e-p270:32:32-p271:32:32-p272:64:64-i64:64-i128:128-f80:128-n8:16:32:64-S128"
target triple = "x86_64-pc-linux-gnu"

%struct._generic_SUNAdaptController = type { ptr, ptr, ptr }
%struct._SUNAdaptControllerContent_Soderlind = type { double, double, double, double, double, double, double, double, double, double, i32 }

; Function Attrs: nounwind uwtable
define i32 @SUNAdaptController_SetParams_PI(ptr noundef %0, double noundef %1, double noundef %2) #0 {
  %4 = alloca ptr, align 8
  %5 = alloca double, align 8
  %6 = alloca double, align 8
  %7 = alloca ptr, align 8
  store ptr %0, ptr %4, align 8, !tbaa !8
  store double %1, ptr %5, align 8, !tbaa !25
  store double %2, ptr %6, align 8, !tbaa !25
  call void @llvm.lifetime.start.p0(i64 8, ptr %7) #5
  %8 = load ptr, ptr %4, align 8, !tbaa !8
  %9 = getelementptr inbounds nuw %struct._generic_SUNAdaptController, ptr %8, i32 0, i32 2
  %10 = load ptr, ptr %9, align 8, !tbaa !31
  store ptr %10, ptr %7, align 8, !tbaa !3
  %11 = load double, ptr %5, align 8, !tbaa !25
  %12 = load ptr, ptr %4, align 8, !tbaa !8
  %13 = getelementptr inbounds nuw %struct._generic_SUNAdaptController, ptr %12, i32 0, i32 0
  %14 = load ptr, ptr %13, align 8, !tbaa !24
  %15 = getelementptr inbounds nuw %struct._SUNAdaptControllerContent_Soderlind, ptr %14, i32 0, i32 0
  store double %11, ptr %15, align 8, !tbaa !32
  %16 = load double, ptr %6, align 8, !tbaa !25
  %17 = load ptr, ptr %4, align 8, !tbaa !8
  %18 = getelementptr inbounds nuw %struct._generic_SUNAdaptController, ptr %17, i32 0, i32 0
  %19 = load ptr, ptr %18, align 8, !tbaa !24
  %20 = getelementptr inbounds nuw %struct._SUNAdaptControllerContent_Soderlind, ptr %19, i32 0, i32 1
  store double %16, ptr %20, align 8, !tbaa !34
  %21 = load ptr, ptr %4, align 8, !tbaa !8
  %22 = getelementptr inbounds nuw %struct._generic_SUNAdaptController, ptr %21, i32 0, i32 0
  %23 = load ptr, ptr %22, align 8, !tbaa !24
  %24 = getelementptr inbounds nuw %struct._SUNAdaptControllerContent_Soderlind, ptr %23, i32 0, i32 2
  store double 0.000000e+00, ptr %24, align 8, !tbaa !35
  %25 = load ptr, ptr %4, align 8, !tbaa !8
  %26 = getelementptr inbounds nuw %struct._generic_SUNAdaptController, ptr %25, i32 0, i32 0
  %27 = load ptr, ptr %26, align 8, !tbaa !24
  %28 = getelementptr inbounds nuw %struct._SUNAdaptControllerContent_Soderlind, ptr %27, i32 0, i32 3
  store double 0.000000e+00, ptr %28, align 8, !tbaa !36
  %29 = load ptr, ptr %4, align 8, !tbaa !8
  %30 = getelementptr inbounds nuw %struct._generic_SUNAdaptController, ptr %29, i32 0, i32 0
  %31 = load ptr, ptr %30, align 8, !tbaa !24
  %32 = getelementptr inbounds nuw %struct._SUNAdaptControllerContent_Soderlind, ptr %31, i32 0, i32 4
  store double 0.000000e+00, ptr %32, align 8, !tbaa !37
  call void @llvm.lifetime.end.p0(i64 8, ptr %7) #5
  ret i32 0
}