; Function Attrs: mustprogress nofree norecurse nosync nounwind willreturn memory(write, argmem: readwrite, inaccessiblemem: none) uwtable
define noundef i32 @SUNAdaptController_SetParams_PI(ptr noundef readonly captures(none) %0, double noundef %1, double noundef %2) local_unnamed_addr #3 {
  %4 = load ptr, ptr %0, align 8, !tbaa !19
  store double %1, ptr %4, align 8, !tbaa !20
  %5 = getelementptr inbounds nuw i8, ptr %4, i64 8
  store double %2, ptr %5, align 8, !tbaa !24
  %6 = getelementptr inbounds nuw i8, ptr %4, i64 16
  tail call void @llvm.memset.p0.i64(ptr noundef nonnull align 8 dereferenceable(24) %6, i8 0, i64 24, i1 false)
  ret i32 0
}